; Function Attrs: mustprogress nofree norecurse nosync nounwind willreturn memory(argmem: read) uwtable
define dso_local noundef ptr @_ZN4Luau10Normalizer11unionOfTopsEPKNS_4TypeES3_(ptr noundef nonnull readnone align 8 captures(none) dereferenceable(337) %0, ptr noundef readonly %1, ptr noundef readonly %2) local_unnamed_addr #7 align 2 {
  %.not.i.i = icmp eq ptr %1, null
  br i1 %.not.i.i, label %7, label %4

4:                                                ; preds = %3
  %5 = load i32, ptr %1, align 8, !tbaa !52
  %6 = icmp eq i32 %5, 17
  br i1 %6, label %_ZN4Luau3getINS_9NeverTypeEEEPKT_PKNS_4TypeE.exit, label %7

7:                                                ; preds = %4, %3
  %.not.i.i6 = icmp eq ptr %2, null
  br i1 %.not.i.i6, label %_ZN4Luau3getINS_9NeverTypeEEEPKT_PKNS_4TypeE.exit, label %8

8:                                                ; preds = %7
  %9 = load i32, ptr %2, align 8, !tbaa !52
  %.not = icmp eq i32 %9, 12
  %10 = select i1 %.not, ptr %2, ptr %1
  br label %_ZN4Luau3getINS_9NeverTypeEEEPKT_PKNS_4TypeE.exit

_ZN4Luau3getINS_9NeverTypeEEEPKT_PKNS_4TypeE.exit: ; preds = %8, %7, %4
  %.0 = phi ptr [ %2, %4 ], [ %10, %8 ], [ %1, %7 ]
  ret ptr %.0
}